; Function Attrs: mustprogress uwtable
define hidden void @_ZN11state_graph9add_stateEj(ptr noundef nonnull align 8 dereferenceable(152) %0, i32 noundef %1) local_unnamed_addr #3 align 2 {
  %3 = getelementptr inbounds nuw i8, ptr %0, i64 32
  %4 = lshr i32 %1, 5
  %5 = load ptr, ptr %3, align 8, !tbaa !3
  %6 = icmp eq ptr %5, null
  br i1 %6, label %_ZNK8uint_set8containsEj.exit.thread, label %_ZNK6vectorIjLb0EjE4sizeEv.exit.i

_ZNK6vectorIjLb0EjE4sizeEv.exit.i:                ; preds = %2
  %7 = getelementptr inbounds i8, ptr %5, i64 -4
  %8 = load i32, ptr %7, align 4, !tbaa !9
  %9 = icmp ult i32 %4, %8
  br i1 %9, label %_ZNK8uint_set8containsEj.exit, label %_ZNK8uint_set8containsEj.exit.thread

_ZNK8uint_set8containsEj.exit:                    ; preds = %_ZNK6vectorIjLb0EjE4sizeEv.exit.i
  %10 = zext nneg i32 %4 to i64
  %11 = getelementptr inbounds nuw i32, ptr %5, i64 %10
  %12 = load i32, ptr %11, align 4, !tbaa !9
  %13 = and i32 %1, 31
  %14 = shl nuw i32 1, %13
  %15 = and i32 %12, %14
  %.not = icmp eq i32 %15, 0
  br i1 %.not, label %_ZNK8uint_set8containsEj.exit.thread, label %16

_ZNK8uint_set8containsEj.exit.thread:             ; preds = %2, %_ZNK6vectorIjLb0EjE4sizeEv.exit.i, %_ZNK8uint_set8containsEj.exit
  tail call void @_ZN11state_graph14add_state_coreEj(ptr noundef nonnull align 8 dereferenceable(152) %0, i32 noundef %1)
  br label %16

16:                                               ; preds = %_ZNK8uint_set8containsEj.exit, %_ZNK8uint_set8containsEj.exit.thread
  ret void
}